; Function Attrs: mustprogress nofree norecurse nosync nounwind null_pointer_is_valid sspstrong willreturn memory(write, inaccessiblemem: none) uwtable
define internal void @get_len_bcdplus(ptr noundef writeonly captures(none) %0, ptr noundef writeonly captures(none) %1, ptr readnone captures(none) %2, i32 %3, i32 noundef %4, i1 noundef zeroext %5) #10 {
  br i1 %5, label %7, label %9

7:                                                ; preds = %6
  %8 = shl i32 %4, 1
  store i32 %8, ptr %0, align 4
  br label %12

9:                                                ; preds = %6
  %10 = add i32 %4, 1
  %11 = lshr i32 %10, 1
  store i32 %11, ptr %1, align 4
  br label %12

12:                                               ; preds = %9, %7
  %.sink = phi ptr [ %0, %9 ], [ %1, %7 ]
  store i32 %4, ptr %.sink, align 4
  ret void
}